; Function Attrs: mustprogress uwtable
define hidden void @_ZN2dd6solver13push_equationENS0_8eq_stateERNS0_8equationE(ptr noundef nonnull align 8 dereferenceable(208) %this, i32 noundef %st, ptr noundef nonnull align 8 dereferenceable(32) %eq) local_unnamed_addr #5 align 2 {
entry:
  store i32 %st, ptr %eq, align 8
  %0 = icmp ult i32 %st, 3
  br i1 %0, label %switch.lookup, label %sw.epilog.i

sw.epilog.i:                                      ; preds = %entry
  tail call void @_Z26notify_assertion_violationPKciS0_(ptr noundef nonnull @.str.7, i32 noundef 433, ptr noundef nonnull @.str.10)
  tail call void @exit(i32 noundef 114) #24
  unreachable

switch.lookup:                                    ; preds = %entry
  %1 = shl nuw nsw i32 %st, 3
  %2 = zext nneg i32 %1 to i64
  %3 = getelementptr i8, ptr %this, i64 %2
  %m_solved.i = getelementptr i8, ptr %3, i64 136
  %4 = load ptr, ptr %m_solved.i, align 8
  %cmp.i = icmp eq ptr %4, null
  br i1 %cmp.i, label %_ZNK6vectorIPN2dd6solver8equationELb0EjE4sizeEv.exit, label %if.end.i

if.end.i:                                         ; preds = %switch.lookup
  %arrayidx.i = getelementptr inbounds i8, ptr %4, i64 -4
  %5 = load i32, ptr %arrayidx.i, align 4
  br label %_ZNK6vectorIPN2dd6solver8equationELb0EjE4sizeEv.exit

_ZNK6vectorIPN2dd6solver8equationELb0EjE4sizeEv.exit: ; preds = %switch.lookup, %if.end.i
  %retval.0.i = phi i32 [ %5, %if.end.i ], [ 0, %switch.lookup ]
  %m_idx.i = getelementptr inbounds i8, ptr %eq, i64 4
  store i32 %retval.0.i, ptr %m_idx.i, align 4
  %6 = load ptr, ptr %m_solved.i, align 8
  %cmp.i5 = icmp eq ptr %6, null
  br i1 %cmp.i5, label %if.then.i, label %lor.lhs.false.i

lor.lhs.false.i:                                  ; preds = %_ZNK6vectorIPN2dd6solver8equationELb0EjE4sizeEv.exit
  %arrayidx.i6 = getelementptr inbounds i8, ptr %6, i64 -4
  %7 = load i32, ptr %arrayidx.i6, align 4
  %arrayidx4.i = getelementptr inbounds i8, ptr %6, i64 -8
  %8 = load i32, ptr %arrayidx4.i, align 4
  %cmp5.i = icmp eq i32 %7, %8
  br i1 %cmp5.i, label %if.then.i, label %_ZN6vectorIPN2dd6solver8equationELb0EjE9push_backEOS3_.exit

if.then.i:                                        ; preds = %lor.lhs.false.i, %_ZNK6vectorIPN2dd6solver8equationELb0EjE4sizeEv.exit
  tail call void @_ZN6vectorIPN2dd6solver8equationELb0EjE13expand_vectorEv(ptr noundef nonnull align 8 dereferenceable(8) %m_solved.i)
  %.pre.i = load ptr, ptr %m_solved.i, align 8
  %arrayidx8.phi.trans.insert.i = getelementptr inbounds i8, ptr %.pre.i, i64 -4
  %.pre1.i = load i32, ptr %arrayidx8.phi.trans.insert.i, align 4
  br label %_ZN6vectorIPN2dd6solver8equationELb0EjE9push_backEOS3_.exit

_ZN6vectorIPN2dd6solver8equationELb0EjE9push_backEOS3_.exit: ; preds = %lor.lhs.false.i, %if.then.i
  %9 = phi i32 [ %.pre1.i, %if.then.i ], [ %7, %lor.lhs.false.i ]
  %10 = phi ptr [ %.pre.i, %if.then.i ], [ %6, %lor.lhs.false.i ]
  %idx.ext.i = zext i32 %9 to i64
  %add.ptr.i = getelementptr inbounds ptr, ptr %10, i64 %idx.ext.i
  store ptr %eq, ptr %add.ptr.i, align 8
  %11 = load ptr, ptr %m_solved.i, align 8
  %arrayidx10.i = getelementptr inbounds i8, ptr %11, i64 -4
  %12 = load i32, ptr %arrayidx10.i, align 4
  %inc.i = add i32 %12, 1
  store i32 %inc.i, ptr %arrayidx10.i, align 4
  ret void
}